target datalayout = "e-m:e-p270:32:32-p271:32:32-p272:64:64-i64:64-i128:128-f80:128-n8:16:32:64-S128"
target triple = "x86_64-pc-linux-gnu"

%struct.SDL_VideoDevice = type { ptr, ptr, ptr, ptr, ptr, ptr, ptr, ptr, ptr, ptr, ptr, ptr, ptr, ptr, ptr, ptr, ptr, ptr, ptr, ptr, ptr, ptr, ptr, ptr, ptr, ptr, ptr, ptr, ptr, ptr, ptr, ptr, ptr, ptr, ptr, ptr, ptr, ptr, ptr, ptr, ptr, ptr, ptr, ptr, ptr, ptr, ptr, ptr, ptr, ptr, ptr, ptr, ptr, ptr, ptr, ptr, ptr, ptr, ptr, ptr, ptr, ptr, ptr, ptr, ptr, ptr, ptr, ptr, ptr, ptr, ptr, ptr, ptr, ptr, ptr, ptr, ptr, ptr, ptr, ptr, ptr, ptr, ptr, ptr, ptr, ptr, ptr, ptr, ptr, ptr, ptr, ptr, ptr, ptr, ptr, ptr, ptr, i64, i8, i8, i8, ptr, i32, ptr, %struct.SDL_Rect, ptr, ptr, i32, ptr, ptr, ptr, ptr, i64, ptr, i8, i32, i32, %struct.anon, ptr, ptr, ptr, ptr, ptr, ptr, %struct.SDL_AtomicInt, %struct.SDL_AtomicInt, i8, %struct.anon.0, ptr, ptr, ptr, ptr, ptr }
%struct.SDL_Rect = type { i32, i32, i32, i32 }
%struct.anon = type { i32, i32, i32, i32, i32, i32, i32, i32, i32, i32, i32, i32, i32, i32, i32, i32, i32, i32, i32, i32, i32, i32, i32, i32, i32, i32, i32, i32, i32, [256 x i8], ptr }
%struct.SDL_AtomicInt = type { i32 }
%struct.anon.0 = type { ptr, ptr, i32, [256 x i8], ptr }
%struct.SDL_VideoData = type { ptr, ptr, i32, ptr, i64, i32, ptr, i32, i64, i64, %struct.X11_ClipboardData, %struct.X11_ClipboardData, ptr, i64, %struct.X11_SettingsData, i8, %struct.anon.1, [256 x i32], i8, i8, i8, i64, i8, %struct.SDL_Point, i32, ptr, i32, i8, i32, %struct.anon.2, i8, i64, ptr, ptr, i8, i8, i8 }
%struct.X11_ClipboardData = type { ptr, ptr, ptr, i64, i32 }
%struct.X11_SettingsData = type { ptr }
%struct.anon.1 = type { i64, i64, i64, i64, i64, i64, i64, i64, i64, i64, i64, i64, i64, i64, i64, i64, i64, i64, i64, i64, i64, i64, i64, i64, i64, i64, i64, i64, i64, i64, i64, i64, i64, i64, i64, i64, i64, i64, i64, i64, i64, i64, i64, i64, i64, i64, i64, i64, i64, i64, i64, i64, i64 }
%struct.SDL_Point = type { i32, i32 }
%struct.anon.2 = type { ptr, i32, i32, i32, i16, i32, i32 }

@X11_XGetWindowProperty = external global ptr, align 8
@X11_XFree = external global ptr, align 8
@.str.21 = private unnamed_addr constant [6 x i8] c"UTF-8\00", align 1
@.str.22 = private unnamed_addr constant [1 x i8] zeroinitializer, align 1
@.str.23 = private unnamed_addr constant [58 x i8] c"Failed to convert WM_NAME title expecting UTF8! Title: %s\00", align 1
@.str.24 = private unnamed_addr constant [75 x i8] c"Could not get any window title response from Xorg, returning empty string!\00", align 1

; Function Attrs: nounwind uwtable
define hidden ptr @X11_GetWindowTitle(ptr noundef %0, i64 noundef %1) #0 {
  %3 = alloca ptr, align 8
  %4 = alloca i64, align 8
  %5 = alloca ptr, align 8
  %6 = alloca ptr, align 8
  %7 = alloca i32, align 4
  %8 = alloca i32, align 4
  %9 = alloca i64, align 8
  %10 = alloca i64, align 8
  %11 = alloca i64, align 8
  %12 = alloca ptr, align 8
  %13 = alloca ptr, align 8
  store ptr %0, ptr %3, align 8
  store i64 %1, ptr %4, align 8
  call void @llvm.lifetime.start.p0(i64 8, ptr %5) #7
  %14 = load ptr, ptr %3, align 8
  %15 = getelementptr inbounds nuw %struct.SDL_VideoDevice, ptr %14, i32 0, i32 128
  %16 = load ptr, ptr %15, align 8
  store ptr %16, ptr %5, align 8
  call void @llvm.lifetime.start.p0(i64 8, ptr %6) #7
  %17 = load ptr, ptr %5, align 8
  %18 = getelementptr inbounds nuw %struct.SDL_VideoData, ptr %17, i32 0, i32 0
  %19 = load ptr, ptr %18, align 8
  store ptr %19, ptr %6, align 8
  call void @llvm.lifetime.start.p0(i64 4, ptr %7) #7
  call void @llvm.lifetime.start.p0(i64 4, ptr %8) #7
  call void @llvm.lifetime.start.p0(i64 8, ptr %9) #7
  call void @llvm.lifetime.start.p0(i64 8, ptr %10) #7
  call void @llvm.lifetime.start.p0(i64 8, ptr %11) #7
  call void @llvm.lifetime.start.p0(i64 8, ptr %12) #7
  call void @llvm.lifetime.start.p0(i64 8, ptr %13) #7
  store ptr null, ptr %13, align 8
  %20 = load ptr, ptr @X11_XGetWindowProperty, align 8
  %21 = load ptr, ptr %6, align 8
  %22 = load i64, ptr %4, align 8
  %23 = load ptr, ptr %5, align 8
  %24 = getelementptr inbounds nuw %struct.SDL_VideoData, ptr %23, i32 0, i32 16
  %25 = getelementptr inbounds nuw %struct.anon.1, ptr %24, i32 0, i32 18
  %26 = load i64, ptr %25, align 8
  %27 = load ptr, ptr %5, align 8
  %28 = getelementptr inbounds nuw %struct.SDL_VideoData, ptr %27, i32 0, i32 16
  %29 = getelementptr inbounds nuw %struct.anon.1, ptr %28, i32 0, i32 29
  %30 = load i64, ptr %29, align 8
  %31 = call i32 %20(ptr noundef %21, i64 noundef %22, i64 noundef %26, i64 noundef 0, i64 noundef 8192, i32 noundef 0, i64 noundef %30, ptr noundef %9, ptr noundef %8, ptr noundef %10, ptr noundef %11, ptr noundef %12)
  store i32 %31, ptr %7, align 4
  %32 = load i32, ptr %7, align 4
  %33 = icmp eq i32 %32, 0
  br i1 %33, label %34, label %43

34:                                               ; preds = %2
  %35 = load ptr, ptr %12, align 8
  %36 = icmp ne ptr %35, null
  br i1 %36, label %37, label %43

37:                                               ; preds = %34
  %38 = load ptr, ptr %12, align 8
  %39 = call noalias ptr @SDL_strdup_REAL(ptr noundef %38)
  store ptr %39, ptr %13, align 8
  %40 = load ptr, ptr @X11_XFree, align 8
  %41 = load ptr, ptr %12, align 8
  %42 = call i32 %40(ptr noundef %41)
  br label %65

43:                                               ; preds = %34, %2
  %44 = load ptr, ptr @X11_XGetWindowProperty, align 8
  %45 = load ptr, ptr %6, align 8
  %46 = load i64, ptr %4, align 8
  %47 = call i32 %44(ptr noundef %45, i64 noundef %46, i64 noundef 39, i64 noundef 0, i64 noundef 8192, i32 noundef 0, i64 noundef 31, ptr noundef %9, ptr noundef %8, ptr noundef %10, ptr noundef %11, ptr noundef %12)
  store i32 %47, ptr %7, align 4
  %48 = load i32, ptr %7, align 4
  %49 = icmp eq i32 %48, 0
  br i1 %49, label %50, label %62

50:                                               ; preds = %43
  %51 = load ptr, ptr %12, align 8
  %52 = icmp ne ptr %51, null
  br i1 %52, label %53, label %62

53:                                               ; preds = %50
  %54 = load ptr, ptr %12, align 8
  %55 = load i64, ptr %10, align 8
  %56 = add i64 %55, 1
  %57 = call ptr @SDL_iconv_string_REAL(ptr noundef @.str.21, ptr noundef @.str.22, ptr noundef %54, i64 noundef %56)
  store ptr %57, ptr %13, align 8
  %58 = load ptr, ptr %13, align 8
  call void (i32, ptr, ...) @SDL_LogDebug_REAL(i32 noundef 5, ptr noundef @.str.23, ptr noundef %58)
  %59 = load ptr, ptr @X11_XFree, align 8
  %60 = load ptr, ptr %12, align 8
  %61 = call i32 %59(ptr noundef %60)
  br label %64

62:                                               ; preds = %50, %43
  call void (i32, ptr, ...) @SDL_LogDebug_REAL(i32 noundef 5, ptr noundef @.str.24)
  %63 = call noalias ptr @SDL_strdup_REAL(ptr noundef @.str.22)
  store ptr %63, ptr %13, align 8
  br label %64

64:                                               ; preds = %62, %53
  br label %65

65:                                               ; preds = %64, %37
  %66 = load ptr, ptr %13, align 8
  call void @llvm.lifetime.end.p0(i64 8, ptr %13) #7
  call void @llvm.lifetime.end.p0(i64 8, ptr %12) #7
  call void @llvm.lifetime.end.p0(i64 8, ptr %11) #7
  call void @llvm.lifetime.end.p0(i64 8, ptr %10) #7
  call void @llvm.lifetime.end.p0(i64 8, ptr %9) #7
  call void @llvm.lifetime.end.p0(i64 4, ptr %8) #7
  call void @llvm.lifetime.end.p0(i64 4, ptr %7) #7
  call void @llvm.lifetime.end.p0(i64 8, ptr %6) #7
  call void @llvm.lifetime.end.p0(i64 8, ptr %5) #7
  ret ptr %66
}