; Function Attrs: nounwind uwtable
define hidden ptr @X11_GetWindowTitle(ptr noundef readonly captures(none) %0, i64 noundef %1) local_unnamed_addr #0 {
  %3 = alloca i32, align 4
  %4 = alloca i64, align 8
  %5 = alloca i64, align 8
  %6 = alloca i64, align 8
  %7 = alloca ptr, align 8
  %8 = getelementptr inbounds nuw i8, ptr %0, i64 1656
  %9 = load ptr, ptr %8, align 8
  %10 = load ptr, ptr %9, align 8
  call void @llvm.lifetime.start.p0(i64 4, ptr nonnull %3) #12
  call void @llvm.lifetime.start.p0(i64 8, ptr nonnull %4) #12
  call void @llvm.lifetime.start.p0(i64 8, ptr nonnull %5) #12
  call void @llvm.lifetime.start.p0(i64 8, ptr nonnull %6) #12
  call void @llvm.lifetime.start.p0(i64 8, ptr nonnull %7) #12
  %11 = load ptr, ptr @X11_XGetWindowProperty, align 8
  %12 = getelementptr inbounds nuw i8, ptr %9, i64 336
  %13 = load i64, ptr %12, align 8
  %14 = getelementptr inbounds nuw i8, ptr %9, i64 424
  %15 = load i64, ptr %14, align 8
  %16 = call i32 %11(ptr noundef %10, i64 noundef %1, i64 noundef %13, i64 noundef 0, i64 noundef 8192, i32 noundef 0, i64 noundef %15, ptr noundef nonnull %4, ptr noundef nonnull %3, ptr noundef nonnull %5, ptr noundef nonnull %6, ptr noundef nonnull %7) #12
  %17 = icmp eq i32 %16, 0
  %18 = load ptr, ptr %7, align 8
  %19 = icmp ne ptr %18, null
  %or.cond = select i1 %17, i1 %19, i1 false
  br i1 %or.cond, label %20, label %25

20:                                               ; preds = %2
  %21 = call noalias ptr @SDL_strdup_REAL(ptr noundef nonnull %18) #12
  %22 = load ptr, ptr @X11_XFree, align 8
  %23 = load ptr, ptr %7, align 8
  %24 = call i32 %22(ptr noundef %23) #12
  br label %40

25:                                               ; preds = %2
  %26 = load ptr, ptr @X11_XGetWindowProperty, align 8
  %27 = call i32 %26(ptr noundef %10, i64 noundef %1, i64 noundef 39, i64 noundef 0, i64 noundef 8192, i32 noundef 0, i64 noundef 31, ptr noundef nonnull %4, ptr noundef nonnull %3, ptr noundef nonnull %5, ptr noundef nonnull %6, ptr noundef nonnull %7) #12
  %28 = icmp eq i32 %27, 0
  %29 = load ptr, ptr %7, align 8
  %30 = icmp ne ptr %29, null
  %or.cond3 = select i1 %28, i1 %30, i1 false
  br i1 %or.cond3, label %31, label %38

31:                                               ; preds = %25
  %32 = load i64, ptr %5, align 8
  %33 = add i64 %32, 1
  %34 = call ptr @SDL_iconv_string_REAL(ptr noundef nonnull @.str.21, ptr noundef nonnull @.str.22, ptr noundef nonnull %29, i64 noundef %33) #12
  call void (i32, ptr, ...) @SDL_LogDebug_REAL(i32 noundef 5, ptr noundef nonnull @.str.23, ptr noundef %34) #12
  %35 = load ptr, ptr @X11_XFree, align 8
  %36 = load ptr, ptr %7, align 8
  %37 = call i32 %35(ptr noundef %36) #12
  br label %40

38:                                               ; preds = %25
  call void (i32, ptr, ...) @SDL_LogDebug_REAL(i32 noundef 5, ptr noundef nonnull @.str.24) #12
  %39 = call noalias ptr @SDL_strdup_REAL(ptr noundef nonnull @.str.22) #12
  br label %40

40:                                               ; preds = %31, %38, %20
  %.0 = phi ptr [ %21, %20 ], [ %34, %31 ], [ %39, %38 ]
  call void @llvm.lifetime.end.p0(i64 8, ptr nonnull %7) #12
  call void @llvm.lifetime.end.p0(i64 8, ptr nonnull %6) #12
  call void @llvm.lifetime.end.p0(i64 8, ptr nonnull %5) #12
  call void @llvm.lifetime.end.p0(i64 8, ptr nonnull %4) #12
  call void @llvm.lifetime.end.p0(i64 4, ptr nonnull %3) #12
  ret ptr %.0
}